target datalayout = "e-m:e-p270:32:32-p271:32:32-p272:64:64-i64:64-i128:128-f80:128-n8:16:32:64-S128"
target triple = "x86_64-pc-linux-gnu"

%"class.boost::core::basic_string_view" = type { ptr, i64 }

; Function Attrs: mustprogress nounwind uwtable
define linkonce_odr hidden noundef signext i8 @_ZN5boost4urls7grammar6detail8to_lowerEc(i8 noundef signext %0) #0 comdat {
  %2 = alloca i8, align 1
  store i8 %0, ptr %2, align 1, !tbaa !9
  %3 = load i8, ptr %2, align 1, !tbaa !9
  %4 = sext i8 %3 to i32
  %5 = icmp sge i32 %4, 65
  br i1 %5, label %6, label %15

6:                                                ; preds = %1
  %7 = load i8, ptr %2, align 1, !tbaa !9
  %8 = sext i8 %7 to i32
  %9 = icmp sle i32 %8, 90
  br i1 %9, label %10, label %15

10:                                               ; preds = %6
  %11 = load i8, ptr %2, align 1, !tbaa !9
  %12 = sext i8 %11 to i32
  %13 = add nsw i32 %12, 97
  %14 = sub nsw i32 %13, 65
  br label %18

15:                                               ; preds = %6, %1
  %16 = load i8, ptr %2, align 1, !tbaa !9
  %17 = sext i8 %16 to i32
  br label %18

18:                                               ; preds = %15, %10
  %19 = phi i32 [ %14, %10 ], [ %17, %15 ]
  %20 = trunc i32 %19 to i8
  ret i8 %20
}

; Function Attrs: mustprogress nounwind uwtable
define linkonce_odr hidden noundef i64 @_ZNK5boost4core17basic_string_viewIcE4sizeEv(ptr noundef nonnull align 8 dereferenceable(16) %0) #0 comdat align 2 {
  %2 = alloca ptr, align 8
  store ptr %0, ptr %2, align 8, !tbaa !7
  %3 = load ptr, ptr %2, align 8
  %4 = getelementptr inbounds nuw %"class.boost::core::basic_string_view", ptr %3, i32 0, i32 1
  %5 = load i64, ptr %4, align 8, !tbaa !13
  ret i64 %5
}

; Function Attrs: mustprogress nounwind uwtable
define linkonce_odr hidden noundef ptr @_ZNK5boost4core17basic_string_viewIcE4dataEv(ptr noundef nonnull align 8 dereferenceable(16) %0) #0 comdat align 2 {
  %2 = alloca ptr, align 8
  store ptr %0, ptr %2, align 8, !tbaa !7
  %3 = load ptr, ptr %2, align 8
  %4 = getelementptr inbounds nuw %"class.boost::core::basic_string_view", ptr %3, i32 0, i32 0
  %5 = load ptr, ptr %4, align 8, !tbaa !15
  ret ptr %5
}

; Function Attrs: mustprogress nounwind uwtable
define noundef zeroext i1 @_ZN5boost4urls7grammar6detail10ci_is_lessENS_4core17basic_string_viewIcEES5_(ptr %0, i64 %1, ptr %2, i64 %3) #0 {
  %5 = alloca i1, align 1
  %6 = alloca %"class.boost::core::basic_string_view", align 8
  %7 = alloca %"class.boost::core::basic_string_view", align 8
  %8 = alloca ptr, align 8
  %9 = alloca ptr, align 8
  %10 = alloca i64, align 8
  %11 = alloca i32, align 4
  %12 = alloca i8, align 1
  %13 = alloca i8, align 1
  %14 = getelementptr inbounds nuw { ptr, i64 }, ptr %6, i32 0, i32 0
  store ptr %0, ptr %14, align 8
  %15 = getelementptr inbounds nuw { ptr, i64 }, ptr %6, i32 0, i32 1
  store i64 %1, ptr %15, align 8
  %16 = getelementptr inbounds nuw { ptr, i64 }, ptr %7, i32 0, i32 0
  store ptr %2, ptr %16, align 8
  %17 = getelementptr inbounds nuw { ptr, i64 }, ptr %7, i32 0, i32 1
  store i64 %3, ptr %17, align 8
  call void @llvm.lifetime.start.p0(i64 8, ptr %8) #2
  %18 = call noundef ptr @_ZNK5boost4core17basic_string_viewIcE4dataEv(ptr noundef nonnull align 8 dereferenceable(16) %6) #2
  store ptr %18, ptr %8, align 8, !tbaa !7
  call void @llvm.lifetime.start.p0(i64 8, ptr %9) #2
  %19 = call noundef ptr @_ZNK5boost4core17basic_string_viewIcE4dataEv(ptr noundef nonnull align 8 dereferenceable(16) %7) #2
  store ptr %19, ptr %9, align 8, !tbaa !7
  call void @llvm.lifetime.start.p0(i64 8, ptr %10) #2
  %20 = call noundef i64 @_ZNK5boost4core17basic_string_viewIcE4sizeEv(ptr noundef nonnull align 8 dereferenceable(16) %6) #2
  store i64 %20, ptr %10, align 8, !tbaa !3
  br label %21

21:                                               ; preds = %49, %4
  %22 = load i64, ptr %10, align 8, !tbaa !3
  %23 = add i64 %22, -1
  store i64 %23, ptr %10, align 8, !tbaa !3
  %24 = icmp ne i64 %22, 0
  br i1 %24, label %26, label %25

25:                                               ; preds = %21
  store i32 2, ptr %11, align 4
  br label %50

26:                                               ; preds = %21
  call void @llvm.lifetime.start.p0(i64 1, ptr %12) #2
  %27 = load ptr, ptr %8, align 8, !tbaa !7
  %28 = getelementptr inbounds nuw i8, ptr %27, i32 1
  store ptr %28, ptr %8, align 8, !tbaa !7
  %29 = load i8, ptr %27, align 1, !tbaa !9
  %30 = call noundef signext i8 @_ZN5boost4urls7grammar6detail8to_lowerEc(i8 noundef signext %29) #2
  store i8 %30, ptr %12, align 1, !tbaa !9
  call void @llvm.lifetime.start.p0(i64 1, ptr %13) #2
  %31 = load ptr, ptr %9, align 8, !tbaa !7
  %32 = getelementptr inbounds nuw i8, ptr %31, i32 1
  store ptr %32, ptr %9, align 8, !tbaa !7
  %33 = load i8, ptr %31, align 1, !tbaa !9
  %34 = call noundef signext i8 @_ZN5boost4urls7grammar6detail8to_lowerEc(i8 noundef signext %33) #2
  store i8 %34, ptr %13, align 1, !tbaa !9
  %35 = load i8, ptr %12, align 1, !tbaa !9
  %36 = sext i8 %35 to i32
  %37 = load i8, ptr %13, align 1, !tbaa !9
  %38 = sext i8 %37 to i32
  %39 = icmp ne i32 %36, %38
  br i1 %39, label %40, label %46

40:                                               ; preds = %26
  %41 = load i8, ptr %12, align 1, !tbaa !9
  %42 = sext i8 %41 to i32
  %43 = load i8, ptr %13, align 1, !tbaa !9
  %44 = sext i8 %43 to i32
  %45 = icmp slt i32 %42, %44
  store i1 %45, ptr %5, align 1
  store i32 1, ptr %11, align 4
  br label %47

46:                                               ; preds = %26
  store i32 0, ptr %11, align 4
  br label %47

47:                                               ; preds = %46, %40
  call void @llvm.lifetime.end.p0(i64 1, ptr %13) #2
  call void @llvm.lifetime.end.p0(i64 1, ptr %12) #2
  %48 = load i32, ptr %11, align 4
  switch i32 %48, label %50 [
    i32 0, label %49
  ]

49:                                               ; preds = %47
  br label %21, !llvm.loop !16

50:                                               ; preds = %47, %25
  call void @llvm.lifetime.end.p0(i64 8, ptr %10) #2
  %51 = load i32, ptr %11, align 4
  switch i32 %51, label %53 [
    i32 2, label %52
  ]

52:                                               ; preds = %50
  store i1 false, ptr %5, align 1
  store i32 1, ptr %11, align 4
  br label %53

53:                                               ; preds = %52, %50
  call void @llvm.lifetime.end.p0(i64 8, ptr %9) #2
  call void @llvm.lifetime.end.p0(i64 8, ptr %8) #2
  %54 = load i1, ptr %5, align 1
  ret i1 %54
}