; Function Attrs: mustprogress nofree norecurse nosync nounwind willreturn memory(argmem: read) uwtable
define noundef zeroext i1 @_ZN5boost4urls7grammar6detail10ci_is_lessENS_4core17basic_string_viewIcEES5_(ptr nocapture readonly %0, i64 %1, ptr nocapture readonly %2, i64 %3) local_unnamed_addr #0 {
  br label %5

5:                                                ; preds = %6, %4
  %.014 = phi ptr [ %2, %4 ], [ %13, %6 ]
  %.013 = phi i64 [ %1, %4 ], [ %7, %6 ]
  %.010 = phi ptr [ %0, %4 ], [ %8, %6 ]
  %.not.not.not.not.not.not = icmp ne i64 %.013, 0
  br i1 %.not.not.not.not.not.not, label %6, label %.split.loop.exit

6:                                                ; preds = %5
  %7 = add i64 %.013, -1
  %8 = getelementptr inbounds nuw i8, ptr %.010, i64 1
  %9 = load i8, ptr %.010, align 1, !tbaa !3
  %10 = add i8 %9, -65
  %or.cond.i = icmp ult i8 %10, 26
  %11 = add nuw nsw i8 %9, 32
  %12 = select i1 %or.cond.i, i8 %11, i8 %9
  %13 = getelementptr inbounds nuw i8, ptr %.014, i64 1
  %14 = load i8, ptr %.014, align 1, !tbaa !3
  %15 = add i8 %14, -65
  %or.cond.i18 = icmp ult i8 %15, 26
  %16 = add nuw nsw i8 %14, 32
  %17 = select i1 %or.cond.i18, i8 %16, i8 %14
  %.not17 = icmp eq i8 %12, %17
  br i1 %.not17, label %5, label %.split.loop.exit21, !llvm.loop !9

.split.loop.exit21:                               ; preds = %6
  %18 = icmp slt i8 %12, %17
  br label %.split.loop.exit

.split.loop.exit:                                 ; preds = %5, %.split.loop.exit21
  %.1 = phi i1 [ %18, %.split.loop.exit21 ], [ undef, %5 ]
  %spec.select = and i1 %.not.not.not.not.not.not, %.1
  ret i1 %spec.select
}